target datalayout = "e-m:e-p270:32:32-p271:32:32-p272:64:64-i64:64-i128:128-f80:128-n8:16:32:64-S128"
target triple = "x86_64-pc-linux-gnu"

%union.pthread_mutex_t = type { %struct.__pthread_mutex_s }
%struct.__pthread_mutex_s = type { i32, i32, i32, i32, i32, i16, i16, %struct.__pthread_internal_list }
%struct.__pthread_internal_list = type { ptr, ptr }
%struct.hostlist = type { i32, %union.pthread_mutex_t, i32, i32, i32, ptr, ptr }
%struct.hostrange_t = type { ptr, i64, i64, i32, i8 }

@.str.3 = private unnamed_addr constant [29 x i8] c"%s: pthread_mutex_lock(): %m\00", align 1
@.str.4 = private unnamed_addr constant [31 x i8] c"%s: pthread_mutex_unlock(): %m\00", align 1
@.str.6 = private unnamed_addr constant [22 x i8] c"%s: no hostlist given\00", align 1
@__func__.hostlist_pop = private unnamed_addr constant [13 x i8] c"hostlist_pop\00", align 1

; Function Attrs: nounwind uwtable
define internal void @hostrange_destroy(ptr noundef %0) #0 {
  %2 = alloca ptr, align 8
  store ptr %0, ptr %2, align 8
  %3 = load ptr, ptr %2, align 8
  %4 = icmp eq ptr %3, null
  br i1 %4, label %5, label %6

5:                                                ; preds = %1
  br label %9

6:                                                ; preds = %1
  %7 = load ptr, ptr %2, align 8
  %8 = getelementptr inbounds nuw %struct.hostrange_t, ptr %7, i32 0, i32 0
  call void @slurm_xfree(ptr noundef %8)
  call void @slurm_xfree(ptr noundef %2)
  br label %9

9:                                                ; preds = %6, %5
  ret void
}

; Function Attrs: nounwind uwtable
define internal i32 @hostrange_empty(ptr noundef %0) #0 {
  %2 = alloca ptr, align 8
  store ptr %0, ptr %2, align 8
  %3 = load ptr, ptr %2, align 8
  %4 = getelementptr inbounds nuw %struct.hostrange_t, ptr %3, i32 0, i32 2
  %5 = load i64, ptr %4, align 8
  %6 = load ptr, ptr %2, align 8
  %7 = getelementptr inbounds nuw %struct.hostrange_t, ptr %6, i32 0, i32 1
  %8 = load i64, ptr %7, align 8
  %9 = icmp ult i64 %5, %8
  br i1 %9, label %15, label %10

10:                                               ; preds = %1
  %11 = load ptr, ptr %2, align 8
  %12 = getelementptr inbounds nuw %struct.hostrange_t, ptr %11, i32 0, i32 2
  %13 = load i64, ptr %12, align 8
  %14 = icmp eq i64 %13, -1
  br label %15

15:                                               ; preds = %10, %1
  %16 = phi i1 [ true, %1 ], [ %14, %10 ]
  %17 = zext i1 %16 to i32
  ret i32 %17
}

; Function Attrs: nounwind uwtable
define dso_local ptr @hostlist_pop(ptr noundef %0) #0 {
  %2 = alloca ptr, align 8
  %3 = alloca ptr, align 8
  %4 = alloca ptr, align 8
  %5 = alloca i32, align 4
  %6 = alloca i32, align 4
  %7 = alloca ptr, align 8
  %8 = alloca i32, align 4
  store ptr %0, ptr %3, align 8
  call void @llvm.lifetime.start.p0(i64 8, ptr %4) #13
  store ptr null, ptr %4, align 8
  %9 = load ptr, ptr %3, align 8
  %10 = icmp ne ptr %9, null
  br i1 %10, label %13, label %11

11:                                               ; preds = %1
  %12 = call i32 (ptr, ...) @error(ptr noundef @.str.6, ptr noundef @__func__.hostlist_pop)
  store ptr null, ptr %2, align 8
  store i32 1, ptr %5, align 4
  br label %90

13:                                               ; preds = %1
  br label %14

14:                                               ; preds = %13
  br label %15

15:                                               ; preds = %14
  call void @llvm.lifetime.start.p0(i64 4, ptr %6) #13
  %16 = load ptr, ptr %3, align 8
  %17 = getelementptr inbounds nuw %struct.hostlist, ptr %16, i32 0, i32 1
  %18 = call i32 @pthread_mutex_lock(ptr noundef %17) #13
  store i32 %18, ptr %6, align 4
  %19 = load i32, ptr %6, align 4
  %20 = icmp ne i32 %19, 0
  br i1 %20, label %21, label %24

21:                                               ; preds = %15
  %22 = load i32, ptr %6, align 4
  %23 = call ptr @__errno_location() #14
  store i32 %22, ptr %23, align 4
  call void (ptr, ...) @fatal_abort(ptr noundef @.str.3, ptr noundef @__func__.hostlist_pop) #15
  unreachable

24:                                               ; preds = %15
  call void @llvm.lifetime.end.p0(i64 4, ptr %6) #13
  br label %25

25:                                               ; preds = %24
  br label %26

26:                                               ; preds = %25
  br label %27

27:                                               ; preds = %26
  br label %28

28:                                               ; preds = %27
  %29 = load ptr, ptr %3, align 8
  %30 = getelementptr inbounds nuw %struct.hostlist, ptr %29, i32 0, i32 4
  %31 = load i32, ptr %30, align 8
  %32 = icmp sgt i32 %31, 0
  br i1 %32, label %33, label %73

33:                                               ; preds = %28
  call void @llvm.lifetime.start.p0(i64 8, ptr %7) #13
  %34 = load ptr, ptr %3, align 8
  %35 = getelementptr inbounds nuw %struct.hostlist, ptr %34, i32 0, i32 5
  %36 = load ptr, ptr %35, align 8
  %37 = load ptr, ptr %3, align 8
  %38 = getelementptr inbounds nuw %struct.hostlist, ptr %37, i32 0, i32 3
  %39 = load i32, ptr %38, align 4
  %40 = sub nsw i32 %39, 1
  %41 = sext i32 %40 to i64
  %42 = getelementptr inbounds ptr, ptr %36, i64 %41
  %43 = load ptr, ptr %42, align 8
  store ptr %43, ptr %7, align 8
  %44 = load ptr, ptr %7, align 8
  %45 = call ptr @hostrange_pop(ptr noundef %44)
  store ptr %45, ptr %4, align 8
  %46 = load ptr, ptr %3, align 8
  %47 = getelementptr inbounds nuw %struct.hostlist, ptr %46, i32 0, i32 4
  %48 = load i32, ptr %47, align 8
  %49 = add nsw i32 %48, -1
  store i32 %49, ptr %47, align 8
  %50 = load ptr, ptr %7, align 8
  %51 = call i32 @hostrange_empty(ptr noundef %50)
  %52 = icmp ne i32 %51, 0
  br i1 %52, label %53, label %72

53:                                               ; preds = %33
  %54 = load ptr, ptr %3, align 8
  %55 = getelementptr inbounds nuw %struct.hostlist, ptr %54, i32 0, i32 5
  %56 = load ptr, ptr %55, align 8
  %57 = load ptr, ptr %3, align 8
  %58 = getelementptr inbounds nuw %struct.hostlist, ptr %57, i32 0, i32 3
  %59 = load i32, ptr %58, align 4
  %60 = add nsw i32 %59, -1
  store i32 %60, ptr %58, align 4
  %61 = sext i32 %60 to i64
  %62 = getelementptr inbounds ptr, ptr %56, i64 %61
  %63 = load ptr, ptr %62, align 8
  call void @hostrange_destroy(ptr noundef %63)
  %64 = load ptr, ptr %3, align 8
  %65 = getelementptr inbounds nuw %struct.hostlist, ptr %64, i32 0, i32 5
  %66 = load ptr, ptr %65, align 8
  %67 = load ptr, ptr %3, align 8
  %68 = getelementptr inbounds nuw %struct.hostlist, ptr %67, i32 0, i32 3
  %69 = load i32, ptr %68, align 4
  %70 = sext i32 %69 to i64
  %71 = getelementptr inbounds ptr, ptr %66, i64 %70
  store ptr null, ptr %71, align 8
  br label %72

72:                                               ; preds = %53, %33
  call void @llvm.lifetime.end.p0(i64 8, ptr %7) #13
  br label %73

73:                                               ; preds = %72, %28
  br label %74

74:                                               ; preds = %73
  br label %75

75:                                               ; preds = %74
  call void @llvm.lifetime.start.p0(i64 4, ptr %8) #13
  %76 = load ptr, ptr %3, align 8
  %77 = getelementptr inbounds nuw %struct.hostlist, ptr %76, i32 0, i32 1
  %78 = call i32 @pthread_mutex_unlock(ptr noundef %77) #13
  store i32 %78, ptr %8, align 4
  %79 = load i32, ptr %8, align 4
  %80 = icmp ne i32 %79, 0
  br i1 %80, label %81, label %84

81:                                               ; preds = %75
  %82 = load i32, ptr %8, align 4
  %83 = call ptr @__errno_location() #14
  store i32 %82, ptr %83, align 4
  call void (ptr, ...) @fatal_abort(ptr noundef @.str.4, ptr noundef @__func__.hostlist_pop) #15
  unreachable

84:                                               ; preds = %75
  call void @llvm.lifetime.end.p0(i64 4, ptr %8) #13
  br label %85

85:                                               ; preds = %84
  br label %86

86:                                               ; preds = %85
  br label %87

87:                                               ; preds = %86
  br label %88

88:                                               ; preds = %87
  %89 = load ptr, ptr %4, align 8
  store ptr %89, ptr %2, align 8
  store i32 1, ptr %5, align 4
  br label %90

90:                                               ; preds = %88, %11
  call void @llvm.lifetime.end.p0(i64 8, ptr %4) #13
  %91 = load ptr, ptr %2, align 8
  ret ptr %91
}