; Function Attrs: nounwind uwtable
define dso_local noalias ptr @hostlist_pop(ptr noundef %0) #0 {
  %2 = alloca ptr, align 8
  %.not = icmp eq ptr %0, null
  br i1 %.not, label %3, label %5

3:                                                ; preds = %1
  %4 = tail call i32 (ptr, ...) @error(ptr noundef nonnull @.str.6, ptr noundef nonnull @__func__.hostlist_pop) #22
  br label %45

5:                                                ; preds = %1
  %6 = getelementptr inbounds nuw i8, ptr %0, i64 8
  %7 = tail call i32 @pthread_mutex_lock(ptr noundef nonnull %6) #22
  %.not22 = icmp eq i32 %7, 0
  br i1 %.not22, label %10, label %8

8:                                                ; preds = %5
  %9 = tail call ptr @__errno_location() #24
  store i32 %7, ptr %9, align 4
  tail call void (ptr, ...) @fatal_abort(ptr noundef nonnull @.str.3, ptr noundef nonnull @__func__.hostlist_pop) #25
  unreachable

10:                                               ; preds = %5
  %11 = getelementptr inbounds nuw i8, ptr %0, i64 56
  %12 = load i32, ptr %11, align 8
  %13 = icmp sgt i32 %12, 0
  br i1 %13, label %14, label %41

14:                                               ; preds = %10
  %15 = getelementptr inbounds nuw i8, ptr %0, i64 64
  %16 = load ptr, ptr %15, align 8
  %17 = getelementptr inbounds nuw i8, ptr %0, i64 52
  %18 = load i32, ptr %17, align 4
  %19 = sext i32 %18 to i64
  %20 = getelementptr ptr, ptr %16, i64 %19
  %21 = getelementptr i8, ptr %20, i64 -8
  %22 = load ptr, ptr %21, align 8
  %23 = tail call fastcc ptr @hostrange_pop(ptr noundef %22)
  %24 = load i32, ptr %11, align 8
  %25 = add nsw i32 %24, -1
  store i32 %25, ptr %11, align 8
  %26 = getelementptr i8, ptr %22, i64 8
  %.val = load i64, ptr %26, align 8
  %27 = getelementptr i8, ptr %22, i64 16
  %.val25 = load i64, ptr %27, align 8
  %28 = icmp uge i64 %.val25, %.val
  %29 = icmp ne i64 %.val25, -1
  %narrow.i.not = and i1 %28, %29
  br i1 %narrow.i.not, label %41, label %30

30:                                               ; preds = %14
  %31 = load ptr, ptr %15, align 8
  %32 = load i32, ptr %17, align 4
  %33 = add nsw i32 %32, -1
  store i32 %33, ptr %17, align 4
  %34 = sext i32 %33 to i64
  %35 = getelementptr inbounds ptr, ptr %31, i64 %34
  %36 = load ptr, ptr %35, align 8
  call void @llvm.lifetime.start.p0(i64 8, ptr nonnull %2)
  store ptr %36, ptr %2, align 8
  %37 = icmp eq ptr %36, null
  br i1 %37, label %hostrange_destroy.exit, label %38

38:                                               ; preds = %30
  tail call void @slurm_xfree(ptr noundef nonnull %36) #22
  call void @slurm_xfree(ptr noundef nonnull %2) #22
  %.pre = load ptr, ptr %15, align 8
  %.pre28 = load i32, ptr %17, align 4
  %.pre29 = sext i32 %.pre28 to i64
  br label %hostrange_destroy.exit

hostrange_destroy.exit:                           ; preds = %30, %38
  %.pre-phi = phi i64 [ %34, %30 ], [ %.pre29, %38 ]
  %39 = phi ptr [ %31, %30 ], [ %.pre, %38 ]
  call void @llvm.lifetime.end.p0(i64 8, ptr nonnull %2)
  %40 = getelementptr inbounds ptr, ptr %39, i64 %.pre-phi
  store ptr null, ptr %40, align 8
  br label %41

41:                                               ; preds = %14, %hostrange_destroy.exit, %10
  %.018 = phi ptr [ null, %10 ], [ %23, %hostrange_destroy.exit ], [ %23, %14 ]
  %42 = call i32 @pthread_mutex_unlock(ptr noundef nonnull %6) #22
  %.not24 = icmp eq i32 %42, 0
  br i1 %.not24, label %45, label %43

43:                                               ; preds = %41
  %44 = tail call ptr @__errno_location() #24
  store i32 %42, ptr %44, align 4
  call void (ptr, ...) @fatal_abort(ptr noundef nonnull @.str.4, ptr noundef nonnull @__func__.hostlist_pop) #25
  unreachable

45:                                               ; preds = %41, %3
  %.0 = phi ptr [ null, %3 ], [ %.018, %41 ]
  ret ptr %.0
}